; Function Attrs: mustprogress nounwind uwtable
define hidden void @_ZN5ceres8internal10CudaVectorD2Ev(ptr noundef nonnull align 8 dereferenceable(48) %0) unnamed_addr #3 align 2 personality ptr @__gxx_personality_v0 {
  invoke void @_ZN5ceres8internal10CudaVector17DestroyDescriptorEv(ptr noundef nonnull align 8 dereferenceable(48) %0)
          to label %2 unwind label %4

2:                                                ; preds = %1
  %3 = getelementptr inbounds i8, ptr %0, i64 16
  tail call void @_ZN5ceres8internal10CudaBufferIdED2Ev(ptr noundef nonnull align 8 dereferenceable(24) %3) #11
  ret void

4:                                                ; preds = %1
  %5 = landingpad { ptr, i32 }
          catch ptr null
  %6 = extractvalue { ptr, i32 } %5, 0
  tail call void @__clang_call_terminate(ptr %6) #12
  unreachable
}